; ModuleID = 'source-C-CXX/60/282.c'
source_filename = "source-C-CXX/60/282.c"
target datalayout = "e-m:e-p270:32:32-p271:32:32-p272:64:64-i64:64-f80:128-n8:16:32:64-S128"
target triple = "x86_64-pc-linux-gnu"

@.str = private unnamed_addr constant [3 x i8] c"%d\00", align 1
@.str.1 = private unnamed_addr constant [4 x i8] c"%d\0A\00", align 1

; Function Attrs: nofree nounwind sspstrong uwtable
define dso_local i32 @main() local_unnamed_addr #0 {
  %1 = alloca [100 x i32], align 16
  %2 = alloca i32, align 4
  %3 = alloca i32, align 4
  %4 = bitcast i32* %2 to i8*
  call void @llvm.lifetime.start.p0i8(i64 4, i8* nonnull %4) #4
  %5 = bitcast i32* %3 to i8*
  call void @llvm.lifetime.start.p0i8(i64 4, i8* nonnull %5) #4
  %6 = call i32 (i8*, ...) @__isoc99_scanf(i8* getelementptr inbounds ([3 x i8], [3 x i8]* @.str, i64 0, i64 0), i32* nonnull %3)
  %7 = bitcast [100 x i32]* %1 to i8*
  %8 = getelementptr inbounds [100 x i32], [100 x i32]* %1, i64 0, i64 1
  %9 = getelementptr inbounds [100 x i32], [100 x i32]* %1, i64 0, i64 5
  %10 = getelementptr inbounds [100 x i32], [100 x i32]* %1, i64 0, i64 9
  %11 = getelementptr inbounds [100 x i32], [100 x i32]* %1, i64 0, i64 13
  %12 = getelementptr inbounds [100 x i32], [100 x i32]* %1, i64 0, i64 17
  %13 = getelementptr inbounds [100 x i32], [100 x i32]* %1, i64 0, i64 21
  %14 = load i32, i32* %3, align 4, !tbaa !5
  %15 = icmp slt i32 %14, 1
  br i1 %15, label %33, label %16

16:                                               ; preds = %0
  %17 = bitcast i32* %9 to <4 x i32>*
  %18 = bitcast i32* %10 to <4 x i32>*
  %19 = bitcast i32* %11 to <4 x i32>*
  %20 = bitcast i32* %12 to <4 x i32>*
  %21 = bitcast i32* %8 to <4 x i32>*
  br label %22

22:                                               ; preds = %16, %22
  %23 = phi i32 [ %30, %22 ], [ 1, %16 ]
  %24 = call i32 (i8*, ...) @__isoc99_scanf(i8* getelementptr inbounds ([3 x i8], [3 x i8]* @.str, i64 0, i64 0), i32* nonnull %2)
  %25 = load i32, i32* %2, align 4, !tbaa !5
  call void @llvm.lifetime.start.p0i8(i64 400, i8* nonnull %7) #4
  store <4 x i32> <i32 5, i32 8, i32 13, i32 21>, <4 x i32>* %17, align 4, !tbaa !5
  store <4 x i32> <i32 34, i32 55, i32 89, i32 144>, <4 x i32>* %18, align 4, !tbaa !5
  store <4 x i32> <i32 233, i32 377, i32 610, i32 987>, <4 x i32>* %19, align 4, !tbaa !5
  store <4 x i32> <i32 1597, i32 2584, i32 4181, i32 6765>, <4 x i32>* %20, align 4, !tbaa !5
  store <4 x i32> <i32 1, i32 1, i32 2, i32 3>, <4 x i32>* %21, align 4, !tbaa !5
  store i32 10946, i32* %13, align 4, !tbaa !5
  %26 = sext i32 %25 to i64
  %27 = getelementptr inbounds [100 x i32], [100 x i32]* %1, i64 0, i64 %26
  %28 = load i32, i32* %27, align 4, !tbaa !5
  call void @llvm.lifetime.end.p0i8(i64 400, i8* nonnull %7) #4
  %29 = call i32 (i8*, ...) @printf(i8* nonnull dereferenceable(1) getelementptr inbounds ([4 x i8], [4 x i8]* @.str.1, i64 0, i64 0), i32 %28)
  %30 = add nuw nsw i32 %23, 1
  %31 = load i32, i32* %3, align 4, !tbaa !5
  %32 = icmp slt i32 %23, %31
  br i1 %32, label %22, label %33, !llvm.loop !9

33:                                               ; preds = %22, %0
  call void @llvm.lifetime.end.p0i8(i64 4, i8* nonnull %5) #4
  call void @llvm.lifetime.end.p0i8(i64 4, i8* nonnull %4) #4
  ret i32 0
}

; Function Attrs: argmemonly mustprogress nofree nosync nounwind willreturn
declare void @llvm.lifetime.start.p0i8(i64 immarg, i8* nocapture) #1

; Function Attrs: nofree nounwind
declare noundef i32 @__isoc99_scanf(i8* nocapture noundef readonly, ...) local_unnamed_addr #2

; Function Attrs: nofree nounwind
declare noundef i32 @printf(i8* nocapture noundef readonly, ...) local_unnamed_addr #2

; Function Attrs: nofree nosync nounwind readnone sspstrong uwtable
define dso_local i32 @sum(i32 %0) local_unnamed_addr #3 {
  %2 = alloca [100 x i32], align 16
  %3 = bitcast [100 x i32]* %2 to i8*
  call void @llvm.lifetime.start.p0i8(i64 400, i8* nonnull %3) #4
  %4 = getelementptr inbounds [100 x i32], [100 x i32]* %2, i64 0, i64 1
  %5 = getelementptr inbounds [100 x i32], [100 x i32]* %2, i64 0, i64 5
  %6 = bitcast i32* %5 to <4 x i32>*
  store <4 x i32> <i32 5, i32 8, i32 13, i32 21>, <4 x i32>* %6, align 4, !tbaa !5
  %7 = getelementptr inbounds [100 x i32], [100 x i32]* %2, i64 0, i64 9
  %8 = bitcast i32* %7 to <4 x i32>*
  store <4 x i32> <i32 34, i32 55, i32 89, i32 144>, <4 x i32>* %8, align 4, !tbaa !5
  %9 = getelementptr inbounds [100 x i32], [100 x i32]* %2, i64 0, i64 13
  %10 = bitcast i32* %9 to <4 x i32>*
  store <4 x i32> <i32 233, i32 377, i32 610, i32 987>, <4 x i32>* %10, align 4, !tbaa !5
  %11 = getelementptr inbounds [100 x i32], [100 x i32]* %2, i64 0, i64 17
  %12 = bitcast i32* %11 to <4 x i32>*
  store <4 x i32> <i32 1597, i32 2584, i32 4181, i32 6765>, <4 x i32>* %12, align 4, !tbaa !5
  %13 = bitcast i32* %4 to <4 x i32>*
  store <4 x i32> <i32 1, i32 1, i32 2, i32 3>, <4 x i32>* %13, align 4, !tbaa !5
  %14 = getelementptr inbounds [100 x i32], [100 x i32]* %2, i64 0, i64 21
  store i32 10946, i32* %14, align 4, !tbaa !5
  %15 = sext i32 %0 to i64
  %16 = getelementptr inbounds [100 x i32], [100 x i32]* %2, i64 0, i64 %15
  %17 = load i32, i32* %16, align 4, !tbaa !5
  call void @llvm.lifetime.end.p0i8(i64 400, i8* nonnull %3) #4
  ret i32 %17
}

; Function Attrs: argmemonly mustprogress nofree nosync nounwind willreturn
declare void @llvm.lifetime.end.p0i8(i64 immarg, i8* nocapture) #1


!llvm.module.flags = !{!0, !1, !2, !3}
!llvm.ident = !{!4}

!0 = !{i32 1, !"wchar_size", i32 4}
!1 = !{i32 7, !"PIC Level", i32 2}
!2 = !{i32 7, !"PIE Level", i32 2}
!3 = !{i32 7, !"uwtable", i32 1}
!4 = !{!"clang version 13.0.0"}
!5 = !{!6, !6, i64 0}
!6 = !{!"int", !7, i64 0}
!7 = !{!"omnipotent char", !8, i64 0}
!8 = !{!"Simple C/C++ TBAA"}
!9 = distinct !{!9, !10}
!10 = !{!"llvm.loop.mustprogress"}
